; Function Attrs: nounwind uwtable
define noundef ptr @Llb_ManGroupCreate(ptr noundef %0, ptr noundef %1) local_unnamed_addr #3 {
  %3 = tail call ptr @Llb_ManGroupAlloc(ptr noundef %0)
  %4 = getelementptr inbounds nuw i8, ptr %3, i64 16
  %5 = load ptr, ptr %4, align 8, !tbaa !17
  %6 = getelementptr inbounds nuw i8, ptr %5, i64 4
  %7 = load i32, ptr %6, align 4, !tbaa !12
  %8 = load i32, ptr %5, align 8, !tbaa !14
  %9 = icmp eq i32 %7, %8
  br i1 %9, label %10, label %.Vec_PtrGrow.exit11_crit_edge.i

.Vec_PtrGrow.exit11_crit_edge.i:                  ; preds = %2
  %.phi.trans.insert.i = getelementptr inbounds nuw i8, ptr %5, i64 8
  %.pre.i = load ptr, ptr %.phi.trans.insert.i, align 8, !tbaa !15
  br label %Vec_PtrPush.exit

10:                                               ; preds = %2
  %11 = icmp slt i32 %7, 16
  br i1 %11, label %12, label %20

12:                                               ; preds = %10
  %13 = getelementptr inbounds nuw i8, ptr %5, i64 8
  %14 = load ptr, ptr %13, align 8, !tbaa !15
  %.not9.i.i = icmp eq ptr %14, null
  br i1 %.not9.i.i, label %17, label %15

15:                                               ; preds = %12
  %16 = tail call dereferenceable_or_null(128) ptr @realloc(ptr noundef nonnull %14, i64 noundef 128) #15
  br label %Vec_PtrGrow.exit.i

17:                                               ; preds = %12
  %18 = tail call noalias dereferenceable_or_null(128) ptr @malloc(i64 noundef 128) #14
  br label %Vec_PtrGrow.exit.i

Vec_PtrGrow.exit.i:                               ; preds = %17, %15
  %19 = phi ptr [ %16, %15 ], [ %18, %17 ]
  store ptr %19, ptr %13, align 8, !tbaa !15
  store i32 16, ptr %5, align 8, !tbaa !14
  br label %Vec_PtrPush.exit

20:                                               ; preds = %10
  %21 = shl nuw nsw i32 %7, 1
  %22 = getelementptr inbounds nuw i8, ptr %5, i64 8
  %23 = load ptr, ptr %22, align 8, !tbaa !15
  %.not9.i10.i = icmp eq ptr %23, null
  %24 = zext nneg i32 %21 to i64
  %25 = shl nuw nsw i64 %24, 3
  br i1 %.not9.i10.i, label %28, label %26

26:                                               ; preds = %20
  %27 = tail call ptr @realloc(ptr noundef nonnull %23, i64 noundef %25) #15
  br label %30

28:                                               ; preds = %20
  %29 = tail call noalias ptr @malloc(i64 noundef %25) #14
  br label %30

30:                                               ; preds = %28, %26
  %31 = phi ptr [ %27, %26 ], [ %29, %28 ]
  store ptr %31, ptr %22, align 8, !tbaa !15
  store i32 %21, ptr %5, align 8, !tbaa !14
  br label %Vec_PtrPush.exit

Vec_PtrPush.exit:                                 ; preds = %.Vec_PtrGrow.exit11_crit_edge.i, %Vec_PtrGrow.exit.i, %30
  %32 = phi ptr [ %.pre.i, %.Vec_PtrGrow.exit11_crit_edge.i ], [ %31, %30 ], [ %19, %Vec_PtrGrow.exit.i ]
  %33 = load i32, ptr %6, align 4, !tbaa !12
  %34 = add nsw i32 %33, 1
  store i32 %34, ptr %6, align 4, !tbaa !12
  %35 = sext i32 %33 to i64
  %36 = getelementptr inbounds ptr, ptr %32, i64 %35
  store ptr %1, ptr %36, align 8, !tbaa !26
  %37 = getelementptr inbounds nuw i8, ptr %0, i64 16
  %38 = load ptr, ptr %37, align 8, !tbaa !42
  tail call void @Aig_ManIncrementTravId(ptr noundef %38) #16
  %39 = getelementptr i8, ptr %1, i64 24
  %.val = load i64, ptr %39, align 8
  %40 = and i64 %.val, 7
  %.not = icmp eq i64 %40, 3
  %41 = load ptr, ptr %37, align 8, !tbaa !42
  %42 = getelementptr i8, ptr %1, i64 8
  %.val18 = load ptr, ptr %42, align 8, !tbaa !40
  %43 = ptrtoint ptr %.val18 to i64
  %44 = and i64 %43, -2
  %45 = inttoptr i64 %44 to ptr
  %46 = getelementptr inbounds nuw i8, ptr %3, i64 8
  %47 = load ptr, ptr %46, align 8, !tbaa !16
  tail call void @Llb_ManGroupCreate_rec(ptr noundef %41, ptr noundef %45, ptr noundef %47)
  br i1 %.not, label %55, label %48

48:                                               ; preds = %Vec_PtrPush.exit
  %49 = load ptr, ptr %37, align 8, !tbaa !42
  %50 = getelementptr i8, ptr %1, i64 16
  %.val19 = load ptr, ptr %50, align 8, !tbaa !41
  %51 = ptrtoint ptr %.val19 to i64
  %52 = and i64 %51, -2
  %53 = inttoptr i64 %52 to ptr
  %54 = load ptr, ptr %46, align 8, !tbaa !16
  tail call void @Llb_ManGroupCreate_rec(ptr noundef %49, ptr noundef %53, ptr noundef %54)
  br label %55

55:                                               ; preds = %Vec_PtrPush.exit, %48
  %56 = tail call ptr @Llb_ManGroupCollect(ptr noundef nonnull %3)
  %57 = getelementptr inbounds nuw i8, ptr %3, i64 24
  store ptr %56, ptr %57, align 8, !tbaa !47
  ret ptr %3
}